(dp0
(V\u307b\u3046\u304c
p1
V\u3044\u3044\u3067\u3059\u306d\u3002
p2
tp3
(lp4
S'__END__'
p5
as(V\u6e7f\u5ea6\u304c
p6
V\u4f4e\u3044\u3067\u3059\u306d\u3002
p7
tp8
(lp9
g5
as(V\u6d17\u6fef\u3057\u305f
p10
g1
tp11
(lp12
g2
as(V\u6674\u308c\u3066
p13
V\u3044\u308b\u306e\u3067\u3001
p14
tp15
(lp16
V\u6d17\u6fef\u7269\u304c
p17
aV\u3044\u307e\u306e\u3046\u3061\u306b
p18
as(V\u96e8\u306a\u306e\u3067\u3001
p19
V\u6d17\u6fef\u7269\u304c
p20
tp21
(lp22
V\u5e72\u305b\u307e\u305b\u3093\u306d\u3002
p23
as(g17
V\u5e72\u305b\u307e\u3059\u306d\u3002
p24
tp25
(lp26
g5
as(V\u3044\u308b\u306e\u3067\u3001
p27
g18
tp28
(lp29
g10
as(V\u304a\u306f\u3088\u3046\u3054\u3056\u3044\u307e\u3059\u3002
p30
V\u4eca\u65e5\u306f\u66c7\u3063\u3066\u307e\u3059\u306d\u3002
p31
tp32
(lp33
g5
as(g18
g10
tp34
(lp35
g1
as(V\u96e8\u3060\u3068\u3001
p36
V\u6c17\u5206\u304c
p37
tp38
(lp39
V\u6ec5\u5165\u308a\u307e\u3059\u306d\u3002
p40
as(V\u591c\u3001
p41
V\u96e8\u304c
p42
tp43
(lp44
V\u632f\u308b\u304b\u3082\u3057\u308c\u307e\u305b\u3093\u306d\u3002
p45
as(V\u3044\u3066\u3001
p46
V\u6563\u6b69\u65e5\u548c\u3067\u3059\u306d\u3002
p47
tp48
(lp49
g5
as(g37
g40
tp50
(lp51
g5
as(V\u304a\u306f\u3088\u3046\u3054\u3056\u3044\u307e\u3059\u3002
p52
V\u4eca\u65e5\u306f\u6b8b\u5ff5\u306a\u304c\u3089
p53
tp54
(lp55
V\u96e8\u3067\u3059\u306d\u3002
p56
as(V\u4eca\u65e5\u306e\u5929\u6c17\u306f\u3001
p57
V\u96e8\u3067\u3059\u306d\u3002
p58
tp59
(lp60
g5
as(V\u96e8\u304c
p61
V\u7d9a\u304f\u3068
p62
tp63
(lp64
V\u56f0\u308a\u307e\u3059\u306d\u3002
p65
as(V\u6e7f\u5ea6\u304c
p66
V\u9ad8\u3044\u3067\u3059\u306d\u3002
p67
tp68
(lp69
g5
as(g62
g65
tp70
(lp71
g5
as(V\u96f2\u3063\u3066
p72
V\u3044\u308b\u306e\u3067\u3001
p73
tp74
(lp75
V\u96e8\u304c
p76
as(V\u304a\u306f\u3088\u3046\u3054\u3056\u3044\u307e\u3059\u3002
p77
V\u4eca\u65e5\u306f
p78
tp79
(lp80
V\u3088\u304f\u6674\u308c\u3066\u307e\u3059\u306d\u3002
p81
as(g78
g81
tp82
(lp83
g5
ag5
as(g76
V\u632f\u308b\u304b\u3082\u3057\u308c\u307e\u305b\u3093\u306d\u3002
p84
tp85
(lp86
g5
ag5
as(g53
g56
tp87
(lp88
g5
ag5
as(V\u3088\u304f
p89
V\u3042\u308a\u307e\u305b\u3093\u306d\u3002
p90
tp91
(lp92
g5
as(V\u5929\u6c17\u304c\u3001
p93
g89
tp94
(lp95
g90
as(V\u4eca\u65e5\u306f\u3001
p96
V\u305a\u3063\u3068\u96e8\u307f\u305f\u3044\u3067\u3059\u3002
p97
tp98
(lp99
g5
as(V\u4eca\u65e5\u306f\u3001
p100
V\u305a\u3063\u3068\u6674\u308c\u308b\u307f\u305f\u3044\u3067\u3059\u3002
p101
tp102
(lp103
g5
as(g73
g76
tp104
(lp105
g84
as(V\u4eca\u65e5\u306e\u5929\u6c17\u306f\u3001
p106
V\u66c7\u308a\u3067\u3059\u306d\u3002
p107
tp108
(lp109
g5
as(V\u3053\u3093\u306b\u3061\u306f\u3002
p110
V\u4eca\u65e5\u306f
p111
tp112
(lp113
V\u3088\u304f\u6674\u308c\u3066\u307e\u3059\u306d\u3002
p114
as(V\u4eca\u65e5\u306e\u5929\u6c17\u306f\u3001
p115
V\u6674\u308c\u3067\u3059\u306d\u3002
p116
tp117
(lp118
g5
as(V\u4eca\u65e5\u306f\u3001
p119
V\u6674\u308c\u306e\u3061\u66c7\u308a\u3067\u3059\u3002
p120
tp121
(lp122
g5
as(V\u6674\u308c\u3066
p123
g46
tp124
(lp125
g47
as(V\u3053\u3093\u306b\u3061\u306f\u3002
p126
V\u4eca\u65e5\u306f\u6b8b\u5ff5\u306a\u304c\u3089
p127
tp128
(lp129
V\u96e8\u3067\u3059\u306d\u3002
p130
as(V\u3053\u3093\u306b\u3061\u306f\u3002
p131
V\u4eca\u65e5\u306f\u66c7\u3063\u3066\u307e\u3059\u306d\u3002
p132
tp133
(lp134
g5
as(V\u6674\u308c\u304c\u3001
p135
V\u305a\u3063\u3068\u7d9a\u304f\u3068\u3044\u3044\u3067\u3059\u306d\u3002
p136
tp137
(lp138
g5
as(g14
g17
tp139
(lp140
g24
as(g20
g23
tp141
(lp142
g5
as(V\u4eca\u65e5\u306f\u3001
p143
V\u66c7\u308a\u306e\u3061\u96e8\u3067\u3059\u3002
p144
tp145
(lp146
g5
as.