(dp0
(V\u6674\u308c\u3066
p1
V\u3044\u308b\u306e\u3067\u3001
p2
tp3
I2
s(V\u304a\u306f\u3088\u3046\u3054\u3056\u3044\u307e\u3059\u3002
p4
V\u4eca\u65e5\u306f\u66c7\u3063\u3066\u307e\u3059\u306d\u3002
p5
tp6
I1
s(V\u96e8\u3060\u3068\u3001
p7
V\u6c17\u5206\u304c
p8
tp9
I1
s(V\u4eca\u65e5\u306f\u3001
p10
V\u66c7\u308a\u306e\u3061\u96e8\u3067\u3059\u3002
p11
tp12
I1
s(V\u304a\u306f\u3088\u3046\u3054\u3056\u3044\u307e\u3059\u3002
p13
V\u4eca\u65e5\u306f\u6b8b\u5ff5\u306a\u304c\u3089
p14
tp15
I1
s(V\u4eca\u65e5\u306e\u5929\u6c17\u306f\u3001
p16
V\u96e8\u3067\u3059\u306d\u3002
p17
tp18
I1
s(V\u96e8\u304c
p19
V\u7d9a\u304f\u3068
p20
tp21
I1
s(V\u6e7f\u5ea6\u304c
p22
V\u9ad8\u3044\u3067\u3059\u306d\u3002
p23
tp24
I1
s(V\u96f2\u3063\u3066
p25
V\u3044\u308b\u306e\u3067\u3001
p26
tp27
I1
s(V\u304a\u306f\u3088\u3046\u3054\u3056\u3044\u307e\u3059\u3002
p28
V\u4eca\u65e5\u306f
p29
tp30
I1
s(V\u96e8\u306a\u306e\u3067\u3001
p31
V\u6d17\u6fef\u7269\u304c
p32
tp33
I1
s(V\u6e7f\u5ea6\u304c
p34
V\u4f4e\u3044\u3067\u3059\u306d\u3002
p35
tp36
I1
s(V\u5929\u6c17\u304c\u3001
p37
V\u3088\u304f
p38
tp39
I1
s(V\u4eca\u65e5\u306f\u3001
p40
V\u305a\u3063\u3068\u6674\u308c\u308b\u307f\u305f\u3044\u3067\u3059\u3002
p41
tp42
I1
s(V\u4eca\u65e5\u306e\u5929\u6c17\u306f\u3001
p43
V\u66c7\u308a\u3067\u3059\u306d\u3002
p44
tp45
I1
s(V\u3053\u3093\u306b\u3061\u306f\u3002
p46
V\u4eca\u65e5\u306f
p47
tp48
I1
s(V\u4eca\u65e5\u306e\u5929\u6c17\u306f\u3001
p49
V\u6674\u308c\u3067\u3059\u306d\u3002
p50
tp51
I1
s(V\u4eca\u65e5\u306f\u3001
p52
V\u6674\u308c\u306e\u3061\u66c7\u308a\u3067\u3059\u3002
p53
tp54
I1
s(V\u6674\u308c\u3066
p55
V\u3044\u3066\u3001
p56
tp57
I1
s(V\u4eca\u65e5\u306f\u3001
p58
V\u305a\u3063\u3068\u96e8\u307f\u305f\u3044\u3067\u3059\u3002
p59
tp60
I1
s(V\u3053\u3093\u306b\u3061\u306f\u3002
p61
V\u4eca\u65e5\u306f\u6b8b\u5ff5\u306a\u304c\u3089
p62
tp63
I1
s(V\u3053\u3093\u306b\u3061\u306f\u3002
p64
V\u4eca\u65e5\u306f\u66c7\u3063\u3066\u307e\u3059\u306d\u3002
p65
tp66
I1
s(V\u6674\u308c\u304c\u3001
p67
V\u305a\u3063\u3068\u7d9a\u304f\u3068\u3044\u3044\u3067\u3059\u306d\u3002
p68
tp69
I1
s(V\u591c\u3001
p70
V\u96e8\u304c
p71
tp72
I1
s.